target datalayout = "e-m:e-p270:32:32-p271:32:32-p272:64:64-i64:64-i128:128-f80:128-n8:16:32:64-S128"
target triple = "x86_64-pc-linux-gnu"

%struct.AVTextFormatContext = type { ptr, ptr, ptr, ptr, ptr, ptr, i32, i32, [12 x i32], [12 x [100 x i32]], [12 x ptr], [12 x %struct.AVBPrint], i32, i32, i32, i32, i32, ptr, i32, ptr, i32 }
%struct.AVBPrint = type { ptr, i32, i32, i32, [1 x i8], [1000 x i8] }
%struct.FlatContext = type { ptr, ptr, i8, i32 }
%struct.AVTextFormatSection = type { i32, ptr, i32, [12 x i32], ptr, ptr, ptr, ptr, i32, ptr, ptr, ptr, ptr }

@.str.11 = private unnamed_addr constant [3 x i8] c"%s\00", align 1
@.str.12 = private unnamed_addr constant [5 x i8] c"%s%s\00", align 1
@.str.13 = private unnamed_addr constant [5 x i8] c"%d%s\00", align 1
@.str.14 = private unnamed_addr constant [36 x i8] c"Invalid section access at level %d\0A\00", align 1

; Function Attrs: inlinehint nounwind uwtable
define internal ptr @tf_get_parent_section(ptr noundef %0, i32 noundef %1) #5 {
  %3 = alloca ptr, align 8
  %4 = alloca ptr, align 8
  %5 = alloca i32, align 4
  store ptr %0, ptr %4, align 8, !tbaa !4
  store i32 %1, ptr %5, align 4, !tbaa !37
  %6 = load i32, ptr %5, align 4, !tbaa !37
  %7 = icmp sle i32 %6, 0
  br i1 %7, label %8, label %9

8:                                                ; preds = %2
  store ptr null, ptr %3, align 8
  br label %14

9:                                                ; preds = %2
  %10 = load ptr, ptr %4, align 8, !tbaa !4
  %11 = load i32, ptr %5, align 4, !tbaa !37
  %12 = sub nsw i32 %11, 1
  %13 = call ptr @tf_get_section(ptr noundef %10, i32 noundef %12)
  store ptr %13, ptr %3, align 8
  br label %14

14:                                               ; preds = %9, %8
  %15 = load ptr, ptr %3, align 8
  ret ptr %15
}

; Function Attrs: inlinehint nounwind uwtable
define internal ptr @tf_get_section(ptr noundef %0, i32 noundef %1) #5 {
  %3 = alloca ptr, align 8
  %4 = alloca ptr, align 8
  %5 = alloca i32, align 4
  store ptr %0, ptr %4, align 8, !tbaa !4
  store i32 %1, ptr %5, align 4, !tbaa !37
  %6 = load ptr, ptr %4, align 8, !tbaa !4
  %7 = icmp ne ptr %6, null
  br i1 %7, label %8, label %22

8:                                                ; preds = %2
  %9 = load i32, ptr %5, align 4, !tbaa !37
  %10 = icmp slt i32 %9, 0
  br i1 %10, label %22, label %11

11:                                               ; preds = %8
  %12 = load i32, ptr %5, align 4, !tbaa !37
  %13 = icmp sge i32 %12, 12
  br i1 %13, label %22, label %14

14:                                               ; preds = %11
  %15 = load ptr, ptr %4, align 8, !tbaa !4
  %16 = getelementptr inbounds nuw %struct.AVTextFormatContext, ptr %15, i32 0, i32 10
  %17 = load i32, ptr %5, align 4, !tbaa !37
  %18 = sext i32 %17 to i64
  %19 = getelementptr inbounds [12 x ptr], ptr %16, i64 0, i64 %18
  %20 = load ptr, ptr %19, align 8, !tbaa !28
  %21 = icmp ne ptr %20, null
  br i1 %21, label %29, label %22

22:                                               ; preds = %14, %11, %8, %2
  %23 = load ptr, ptr %4, align 8, !tbaa !4
  %24 = icmp ne ptr %23, null
  br i1 %24, label %25, label %28

25:                                               ; preds = %22
  %26 = load ptr, ptr %4, align 8, !tbaa !4
  %27 = load i32, ptr %5, align 4, !tbaa !37
  call void (ptr, i32, ptr, ...) @av_log(ptr noundef %26, i32 noundef 16, ptr noundef @.str.14, i32 noundef %27)
  br label %28

28:                                               ; preds = %25, %22
  store ptr null, ptr %3, align 8
  br label %36

29:                                               ; preds = %14
  %30 = load ptr, ptr %4, align 8, !tbaa !4
  %31 = getelementptr inbounds nuw %struct.AVTextFormatContext, ptr %30, i32 0, i32 10
  %32 = load i32, ptr %5, align 4, !tbaa !37
  %33 = sext i32 %32 to i64
  %34 = getelementptr inbounds [12 x ptr], ptr %31, i64 0, i64 %33
  %35 = load ptr, ptr %34, align 8, !tbaa !28
  store ptr %35, ptr %3, align 8
  br label %36

36:                                               ; preds = %29, %28
  %37 = load ptr, ptr %3, align 8
  ret ptr %37
}

; Function Attrs: nounwind uwtable
define internal void @flat_print_section_header(ptr noundef %0, ptr noundef %1) #1 {
  %3 = alloca ptr, align 8
  %4 = alloca ptr, align 8
  %5 = alloca ptr, align 8
  %6 = alloca ptr, align 8
  %7 = alloca ptr, align 8
  %8 = alloca ptr, align 8
  %9 = alloca i32, align 4
  %10 = alloca i32, align 4
  store ptr %0, ptr %3, align 8, !tbaa !4
  store ptr %1, ptr %4, align 8, !tbaa !24
  call void @llvm.lifetime.start.p0(i64 8, ptr %5) #7
  %11 = load ptr, ptr %3, align 8, !tbaa !4
  %12 = getelementptr inbounds nuw %struct.AVTextFormatContext, ptr %11, i32 0, i32 4
  %13 = load ptr, ptr %12, align 8, !tbaa !9
  store ptr %13, ptr %5, align 8, !tbaa !18
  call void @llvm.lifetime.start.p0(i64 8, ptr %6) #7
  %14 = load ptr, ptr %3, align 8, !tbaa !4
  %15 = getelementptr inbounds nuw %struct.AVTextFormatContext, ptr %14, i32 0, i32 11
  %16 = load ptr, ptr %3, align 8, !tbaa !4
  %17 = getelementptr inbounds nuw %struct.AVTextFormatContext, ptr %16, i32 0, i32 7
  %18 = load i32, ptr %17, align 4, !tbaa !25
  %19 = sext i32 %18 to i64
  %20 = getelementptr inbounds [12 x %struct.AVBPrint], ptr %15, i64 0, i64 %19
  store ptr %20, ptr %6, align 8, !tbaa !26
  call void @llvm.lifetime.start.p0(i64 8, ptr %7) #7
  %21 = load ptr, ptr %3, align 8, !tbaa !4
  %22 = load ptr, ptr %3, align 8, !tbaa !4
  %23 = getelementptr inbounds nuw %struct.AVTextFormatContext, ptr %22, i32 0, i32 7
  %24 = load i32, ptr %23, align 4, !tbaa !25
  %25 = call ptr @tf_get_section(ptr noundef %21, i32 noundef %24)
  store ptr %25, ptr %7, align 8, !tbaa !28
  call void @llvm.lifetime.start.p0(i64 8, ptr %8) #7
  %26 = load ptr, ptr %3, align 8, !tbaa !4
  %27 = load ptr, ptr %3, align 8, !tbaa !4
  %28 = getelementptr inbounds nuw %struct.AVTextFormatContext, ptr %27, i32 0, i32 7
  %29 = load i32, ptr %28, align 4, !tbaa !25
  %30 = call ptr @tf_get_parent_section(ptr noundef %26, i32 noundef %29)
  store ptr %30, ptr %8, align 8, !tbaa !28
  %31 = load ptr, ptr %7, align 8, !tbaa !28
  %32 = icmp ne ptr %31, null
  br i1 %32, label %34, label %33

33:                                               ; preds = %2
  store i32 1, ptr %9, align 4
  br label %121

34:                                               ; preds = %2
  %35 = load ptr, ptr %6, align 8, !tbaa !26
  call void @av_bprint_clear(ptr noundef %35)
  %36 = load ptr, ptr %8, align 8, !tbaa !28
  %37 = icmp ne ptr %36, null
  br i1 %37, label %39, label %38

38:                                               ; preds = %34
  store i32 1, ptr %9, align 4
  br label %121

39:                                               ; preds = %34
  %40 = load ptr, ptr %6, align 8, !tbaa !26
  %41 = load ptr, ptr %3, align 8, !tbaa !4
  %42 = getelementptr inbounds nuw %struct.AVTextFormatContext, ptr %41, i32 0, i32 11
  %43 = load ptr, ptr %3, align 8, !tbaa !4
  %44 = getelementptr inbounds nuw %struct.AVTextFormatContext, ptr %43, i32 0, i32 7
  %45 = load i32, ptr %44, align 4, !tbaa !25
  %46 = sub nsw i32 %45, 1
  %47 = sext i32 %46 to i64
  %48 = getelementptr inbounds [12 x %struct.AVBPrint], ptr %42, i64 0, i64 %47
  %49 = getelementptr inbounds nuw %struct.AVBPrint, ptr %48, i32 0, i32 0
  %50 = load ptr, ptr %49, align 8, !tbaa !29
  call void (ptr, ptr, ...) @av_bprintf(ptr noundef %40, ptr noundef @.str.11, ptr noundef %50)
  %51 = load ptr, ptr %5, align 8, !tbaa !18
  %52 = getelementptr inbounds nuw %struct.FlatContext, ptr %51, i32 0, i32 3
  %53 = load i32, ptr %52, align 4, !tbaa !31
  %54 = icmp ne i32 %53, 0
  br i1 %54, label %61, label %55

55:                                               ; preds = %39
  %56 = load ptr, ptr %7, align 8, !tbaa !28
  %57 = getelementptr inbounds nuw %struct.AVTextFormatSection, ptr %56, i32 0, i32 2
  %58 = load i32, ptr %57, align 8, !tbaa !32
  %59 = and i32 %58, 3
  %60 = icmp ne i32 %59, 0
  br i1 %60, label %120, label %61

61:                                               ; preds = %55, %39
  %62 = load ptr, ptr %6, align 8, !tbaa !26
  %63 = load ptr, ptr %3, align 8, !tbaa !4
  %64 = getelementptr inbounds nuw %struct.AVTextFormatContext, ptr %63, i32 0, i32 10
  %65 = load ptr, ptr %3, align 8, !tbaa !4
  %66 = getelementptr inbounds nuw %struct.AVTextFormatContext, ptr %65, i32 0, i32 7
  %67 = load i32, ptr %66, align 4, !tbaa !25
  %68 = sext i32 %67 to i64
  %69 = getelementptr inbounds [12 x ptr], ptr %64, i64 0, i64 %68
  %70 = load ptr, ptr %69, align 8, !tbaa !28
  %71 = getelementptr inbounds nuw %struct.AVTextFormatSection, ptr %70, i32 0, i32 1
  %72 = load ptr, ptr %71, align 8, !tbaa !35
  %73 = load ptr, ptr %5, align 8, !tbaa !18
  %74 = getelementptr inbounds nuw %struct.FlatContext, ptr %73, i32 0, i32 1
  %75 = load ptr, ptr %74, align 8, !tbaa !20
  call void (ptr, ptr, ...) @av_bprintf(ptr noundef %62, ptr noundef @.str.12, ptr noundef %72, ptr noundef %75)
  %76 = load ptr, ptr %8, align 8, !tbaa !28
  %77 = getelementptr inbounds nuw %struct.AVTextFormatSection, ptr %76, i32 0, i32 2
  %78 = load i32, ptr %77, align 8, !tbaa !32
  %79 = and i32 %78, 2
  %80 = icmp ne i32 %79, 0
  br i1 %80, label %81, label %119

81:                                               ; preds = %61
  call void @llvm.lifetime.start.p0(i64 4, ptr %10) #7
  %82 = load ptr, ptr %8, align 8, !tbaa !28
  %83 = getelementptr inbounds nuw %struct.AVTextFormatSection, ptr %82, i32 0, i32 2
  %84 = load i32, ptr %83, align 8, !tbaa !32
  %85 = and i32 %84, 16
  %86 = icmp ne i32 %85, 0
  br i1 %86, label %87, label %102

87:                                               ; preds = %81
  %88 = load ptr, ptr %3, align 8, !tbaa !4
  %89 = getelementptr inbounds nuw %struct.AVTextFormatContext, ptr %88, i32 0, i32 9
  %90 = load ptr, ptr %3, align 8, !tbaa !4
  %91 = getelementptr inbounds nuw %struct.AVTextFormatContext, ptr %90, i32 0, i32 7
  %92 = load i32, ptr %91, align 4, !tbaa !25
  %93 = sub nsw i32 %92, 1
  %94 = sext i32 %93 to i64
  %95 = getelementptr inbounds [12 x [100 x i32]], ptr %89, i64 0, i64 %94
  %96 = load ptr, ptr %7, align 8, !tbaa !28
  %97 = getelementptr inbounds nuw %struct.AVTextFormatSection, ptr %96, i32 0, i32 0
  %98 = load i32, ptr %97, align 8, !tbaa !36
  %99 = sext i32 %98 to i64
  %100 = getelementptr inbounds [100 x i32], ptr %95, i64 0, i64 %99
  %101 = load i32, ptr %100, align 4, !tbaa !37
  br label %112

102:                                              ; preds = %81
  %103 = load ptr, ptr %3, align 8, !tbaa !4
  %104 = getelementptr inbounds nuw %struct.AVTextFormatContext, ptr %103, i32 0, i32 8
  %105 = load ptr, ptr %3, align 8, !tbaa !4
  %106 = getelementptr inbounds nuw %struct.AVTextFormatContext, ptr %105, i32 0, i32 7
  %107 = load i32, ptr %106, align 4, !tbaa !25
  %108 = sub nsw i32 %107, 1
  %109 = sext i32 %108 to i64
  %110 = getelementptr inbounds [12 x i32], ptr %104, i64 0, i64 %109
  %111 = load i32, ptr %110, align 4, !tbaa !37
  br label %112

112:                                              ; preds = %102, %87
  %113 = phi i32 [ %101, %87 ], [ %111, %102 ]
  store i32 %113, ptr %10, align 4, !tbaa !37
  %114 = load ptr, ptr %6, align 8, !tbaa !26
  %115 = load i32, ptr %10, align 4, !tbaa !37
  %116 = load ptr, ptr %5, align 8, !tbaa !18
  %117 = getelementptr inbounds nuw %struct.FlatContext, ptr %116, i32 0, i32 1
  %118 = load ptr, ptr %117, align 8, !tbaa !20
  call void (ptr, ptr, ...) @av_bprintf(ptr noundef %114, ptr noundef @.str.13, i32 noundef %115, ptr noundef %118)
  call void @llvm.lifetime.end.p0(i64 4, ptr %10) #7
  br label %119

119:                                              ; preds = %112, %61
  br label %120

120:                                              ; preds = %119, %55
  store i32 0, ptr %9, align 4
  br label %121

121:                                              ; preds = %120, %38, %33
  call void @llvm.lifetime.end.p0(i64 8, ptr %8) #7
  call void @llvm.lifetime.end.p0(i64 8, ptr %7) #7
  call void @llvm.lifetime.end.p0(i64 8, ptr %6) #7
  call void @llvm.lifetime.end.p0(i64 8, ptr %5) #7
  %122 = load i32, ptr %9, align 4
  switch i32 %122, label %124 [
    i32 0, label %123
    i32 1, label %123
  ]

123:                                              ; preds = %121, %121
  ret void

124:                                              ; preds = %121
  unreachable
}