; Function Attrs: nounwind uwtable
define internal void @flat_print_section_header(ptr noundef %0, ptr readnone captures(none) %1) #1 {
  %3 = getelementptr inbounds nuw i8, ptr %0, i64 32
  %4 = load ptr, ptr %3, align 8, !tbaa !4
  %5 = getelementptr inbounds nuw i8, ptr %0, i64 5000
  %6 = getelementptr inbounds nuw i8, ptr %0, i64 52
  %7 = load i32, ptr %6, align 4, !tbaa !20
  %8 = sext i32 %7 to i64
  %9 = getelementptr inbounds [12 x %struct.AVBPrint], ptr %5, i64 0, i64 %8
  %10 = icmp eq ptr %0, null
  %11 = icmp ugt i32 %7, 11
  %or.cond3.i = or i1 %10, %11
  br i1 %or.cond3.i, label %.thread.i, label %12

12:                                               ; preds = %2
  %13 = getelementptr inbounds nuw i8, ptr %0, i64 4904
  %14 = zext nneg i32 %7 to i64
  %15 = getelementptr inbounds nuw [12 x ptr], ptr %13, i64 0, i64 %14
  %16 = load ptr, ptr %15, align 8, !tbaa !21
  %.not.i = icmp eq ptr %16, null
  br i1 %.not.i, label %.thread.i, label %tf_get_section.exit

.thread.i:                                        ; preds = %2, %12
  tail call void (ptr, i32, ptr, ...) @av_log(ptr noundef nonnull %0, i32 noundef 16, ptr noundef nonnull @.str.14, i32 noundef %7) #8
  %.pre = load i32, ptr %6, align 4, !tbaa !20
  br label %tf_get_section.exit

tf_get_section.exit:                              ; preds = %12, %.thread.i
  %17 = phi i32 [ %.pre, %.thread.i ], [ %7, %12 ]
  %.0.i = phi ptr [ null, %.thread.i ], [ %16, %12 ]
  %18 = icmp slt i32 %17, 1
  br i1 %18, label %tf_get_parent_section.exit, label %19

19:                                               ; preds = %tf_get_section.exit
  %20 = add nsw i32 %17, -1
  %21 = icmp samesign ugt i32 %20, 11
  %or.cond3.i.i = or i1 %10, %21
  br i1 %or.cond3.i.i, label %.thread.i.i, label %22

22:                                               ; preds = %19
  %23 = getelementptr inbounds nuw i8, ptr %0, i64 4904
  %24 = zext nneg i32 %20 to i64
  %25 = getelementptr inbounds nuw [12 x ptr], ptr %23, i64 0, i64 %24
  %26 = load ptr, ptr %25, align 8, !tbaa !21
  %.not.i.i = icmp eq ptr %26, null
  br i1 %.not.i.i, label %.thread.i.i, label %tf_get_parent_section.exit

.thread.i.i:                                      ; preds = %19, %22
  tail call void (ptr, i32, ptr, ...) @av_log(ptr noundef nonnull %0, i32 noundef 16, ptr noundef nonnull @.str.14, i32 noundef %20) #8
  br label %tf_get_parent_section.exit

tf_get_parent_section.exit:                       ; preds = %tf_get_section.exit, %22, %.thread.i.i
  %.0.i34 = phi ptr [ null, %tf_get_section.exit ], [ null, %.thread.i.i ], [ %26, %22 ]
  %.not = icmp eq ptr %.0.i, null
  br i1 %.not, label %69, label %27

27:                                               ; preds = %tf_get_parent_section.exit
  tail call void @av_bprint_clear(ptr noundef nonnull %9) #8
  %.not29 = icmp eq ptr %.0.i34, null
  br i1 %.not29, label %69, label %28

28:                                               ; preds = %27
  %29 = load i32, ptr %6, align 4, !tbaa !20
  %30 = add nsw i32 %29, -1
  %31 = sext i32 %30 to i64
  %32 = getelementptr inbounds [12 x %struct.AVBPrint], ptr %5, i64 0, i64 %31
  %33 = load ptr, ptr %32, align 8, !tbaa !22
  tail call void (ptr, ptr, ...) @av_bprintf(ptr noundef nonnull %9, ptr noundef nonnull @.str.11, ptr noundef %33) #8
  %34 = getelementptr inbounds nuw i8, ptr %4, i64 20
  %35 = load i32, ptr %34, align 4, !tbaa !24
  %.not30 = icmp eq i32 %35, 0
  br i1 %.not30, label %36, label %40

36:                                               ; preds = %28
  %37 = getelementptr inbounds nuw i8, ptr %.0.i, i64 16
  %38 = load i32, ptr %37, align 8, !tbaa !25
  %39 = and i32 %38, 3
  %.not31 = icmp eq i32 %39, 0
  br i1 %.not31, label %40, label %69

40:                                               ; preds = %36, %28
  %41 = getelementptr inbounds nuw i8, ptr %0, i64 4904
  %42 = load i32, ptr %6, align 4, !tbaa !20
  %43 = sext i32 %42 to i64
  %44 = getelementptr inbounds [12 x ptr], ptr %41, i64 0, i64 %43
  %45 = load ptr, ptr %44, align 8, !tbaa !21
  %46 = getelementptr inbounds nuw i8, ptr %45, i64 8
  %47 = load ptr, ptr %46, align 8, !tbaa !28
  %48 = getelementptr inbounds nuw i8, ptr %4, i64 8
  %49 = load ptr, ptr %48, align 8, !tbaa !16
  tail call void (ptr, ptr, ...) @av_bprintf(ptr noundef nonnull %9, ptr noundef nonnull @.str.12, ptr noundef %47, ptr noundef %49) #8
  %50 = getelementptr inbounds nuw i8, ptr %.0.i34, i64 16
  %51 = load i32, ptr %50, align 8, !tbaa !25
  %52 = and i32 %51, 2
  %.not32 = icmp eq i32 %52, 0
  br i1 %.not32, label %69, label %53

53:                                               ; preds = %40
  %54 = and i32 %51, 16
  %.not33 = icmp eq i32 %54, 0
  %55 = load i32, ptr %6, align 4, !tbaa !20
  %56 = add nsw i32 %55, -1
  %57 = sext i32 %56 to i64
  br i1 %.not33, label %63, label %58

58:                                               ; preds = %53
  %59 = getelementptr inbounds nuw i8, ptr %0, i64 104
  %60 = load i32, ptr %.0.i, align 8, !tbaa !29
  %61 = sext i32 %60 to i64
  %62 = getelementptr inbounds [12 x [100 x i32]], ptr %59, i64 0, i64 %57, i64 %61
  br label %66

63:                                               ; preds = %53
  %64 = getelementptr inbounds nuw i8, ptr %0, i64 56
  %65 = getelementptr inbounds [12 x i32], ptr %64, i64 0, i64 %57
  br label %66

66:                                               ; preds = %63, %58
  %.in = phi ptr [ %62, %58 ], [ %65, %63 ]
  %67 = load i32, ptr %.in, align 4, !tbaa !30
  %68 = load ptr, ptr %48, align 8, !tbaa !16
  tail call void (ptr, ptr, ...) @av_bprintf(ptr noundef nonnull %9, ptr noundef nonnull @.str.13, i32 noundef %67, ptr noundef %68) #8
  br label %69

69:                                               ; preds = %36, %66, %40, %27, %tf_get_parent_section.exit
  ret void
}